target datalayout = "e-m:e-p270:32:32-p271:32:32-p272:64:64-i64:64-i128:128-f80:128-n8:16:32:64-S128"
target triple = "x86_64-pc-linux-gnu"

@.str.8 = private unnamed_addr constant [29 x i8] c"../openssl/test/sanitytest.c\00", align 1
@.str.23 = private unnamed_addr constant [33 x i8] c"(int)((unsigned int)INT_MAX + 1)\00", align 1
@.str.24 = private unnamed_addr constant [8 x i8] c"INT_MIN\00", align 1
@.str.25 = private unnamed_addr constant [36 x i8] c"(long)((unsigned long)LONG_MAX + 1)\00", align 1
@.str.26 = private unnamed_addr constant [9 x i8] c"LONG_MIN\00", align 1

; Function Attrs: nounwind uwtable
define internal i32 @test_sanity_unsigned_conversion() #0 {
  %1 = alloca i32, align 4
  %2 = call i32 @test_int_eq(ptr noundef @.str.8, i32 noundef 73, ptr noundef @.str.23, ptr noundef @.str.24, i32 noundef -2147483648, i32 noundef -2147483648)
  %3 = icmp ne i32 %2, 0
  br i1 %3, label %4, label %7

4:                                                ; preds = %0
  %5 = call i32 @test_long_eq(ptr noundef @.str.8, i32 noundef 74, ptr noundef @.str.25, ptr noundef @.str.26, i64 noundef -9223372036854775808, i64 noundef -9223372036854775808)
  %6 = icmp ne i32 %5, 0
  br i1 %6, label %8, label %7

7:                                                ; preds = %4, %0
  store i32 0, ptr %1, align 4
  br label %9

8:                                                ; preds = %4
  store i32 1, ptr %1, align 4
  br label %9

9:                                                ; preds = %8, %7
  %10 = load i32, ptr %1, align 4
  ret i32 %10
}