; Function Attrs: nounwind uwtable
define internal range(i32 0, 2) i32 @test_sanity_unsigned_conversion() #0 {
  %1 = tail call i32 @test_int_eq(ptr noundef nonnull @.str.8, i32 noundef 73, ptr noundef nonnull @.str.23, ptr noundef nonnull @.str.24, i32 noundef -2147483648, i32 noundef -2147483648) #4
  %.not = icmp eq i32 %1, 0
  br i1 %.not, label %4, label %2

2:                                                ; preds = %0
  %3 = tail call i32 @test_long_eq(ptr noundef nonnull @.str.8, i32 noundef 74, ptr noundef nonnull @.str.25, ptr noundef nonnull @.str.26, i64 noundef -9223372036854775808, i64 noundef -9223372036854775808) #4
  %.not1 = icmp ne i32 %3, 0
  %spec.select = zext i1 %.not1 to i32
  br label %4

4:                                                ; preds = %2, %0
  %.0 = phi i32 [ 0, %0 ], [ %spec.select, %2 ]
  ret i32 %.0
}